target datalayout = "e-m:e-p270:32:32-p271:32:32-p272:64:64-i64:64-i128:128-f80:128-n8:16:32:64-S128"
target triple = "x86_64-pc-linux-gnu"

%struct.Elf64_Shdr = type { i32, i32, i64, i64, i64, i64, i32, i32, i64, i64 }

@.str.5 = private unnamed_addr constant [48 x i8] c"can't allocate memory for reading section data\0A\00", align 1
@.str.6 = private unnamed_addr constant [26 x i8] c"section data read failed\0A\00", align 1

; Function Attrs: nounwind uwtable
define hidden ptr @read_section_data(i32 noundef %0, ptr noundef %1, ptr noundef %2) #0 {
  %4 = alloca ptr, align 8
  %5 = alloca i32, align 4
  %6 = alloca ptr, align 8
  %7 = alloca ptr, align 8
  %8 = alloca ptr, align 8
  store i32 %0, ptr %5, align 4
  store ptr %1, ptr %6, align 8
  store ptr %2, ptr %7, align 8
  store ptr null, ptr %8, align 8
  %9 = load ptr, ptr %7, align 8
  %10 = getelementptr inbounds %struct.Elf64_Shdr, ptr %9, i32 0, i32 1
  %11 = load i32, ptr %10, align 4
  %12 = icmp eq i32 %11, 8
  br i1 %12, label %18, label %13

13:                                               ; preds = %3
  %14 = load ptr, ptr %7, align 8
  %15 = getelementptr inbounds %struct.Elf64_Shdr, ptr %14, i32 0, i32 5
  %16 = load i64, ptr %15, align 8
  %17 = icmp eq i64 %16, 0
  br i1 %17, label %18, label %20

18:                                               ; preds = %13, %3
  %19 = load ptr, ptr %8, align 8
  store ptr %19, ptr %4, align 8
  br label %45

20:                                               ; preds = %13
  %21 = load ptr, ptr %7, align 8
  %22 = getelementptr inbounds %struct.Elf64_Shdr, ptr %21, i32 0, i32 5
  %23 = load i64, ptr %22, align 8
  %24 = call noalias ptr @calloc(i64 noundef %23, i64 noundef 1) #9
  store ptr %24, ptr %8, align 8
  %25 = icmp eq ptr %24, null
  br i1 %25, label %26, label %27

26:                                               ; preds = %20
  call void (ptr, ...) @print_debug(ptr noundef @.str.5)
  store ptr null, ptr %4, align 8
  br label %45

27:                                               ; preds = %20
  %28 = load i32, ptr %5, align 4
  %29 = load ptr, ptr %8, align 8
  %30 = load ptr, ptr %7, align 8
  %31 = getelementptr inbounds %struct.Elf64_Shdr, ptr %30, i32 0, i32 5
  %32 = load i64, ptr %31, align 8
  %33 = load ptr, ptr %7, align 8
  %34 = getelementptr inbounds %struct.Elf64_Shdr, ptr %33, i32 0, i32 4
  %35 = load i64, ptr %34, align 8
  %36 = call i64 @pread64(i32 noundef %28, ptr noundef %29, i64 noundef %32, i64 noundef %35)
  %37 = load ptr, ptr %7, align 8
  %38 = getelementptr inbounds %struct.Elf64_Shdr, ptr %37, i32 0, i32 5
  %39 = load i64, ptr %38, align 8
  %40 = icmp ne i64 %36, %39
  br i1 %40, label %41, label %43

41:                                               ; preds = %27
  %42 = load ptr, ptr %8, align 8
  call void @free(ptr noundef %42) #8
  call void (ptr, ...) @print_debug(ptr noundef @.str.6)
  store ptr null, ptr %4, align 8
  br label %45

43:                                               ; preds = %27
  %44 = load ptr, ptr %8, align 8
  store ptr %44, ptr %4, align 8
  br label %45

45:                                               ; preds = %43, %41, %26, %18
  %46 = load ptr, ptr %4, align 8
  ret ptr %46
}