; Function Attrs: nounwind uwtable
define hidden noundef ptr @read_section_data(i32 noundef %0, ptr nocapture noundef readnone %1, ptr nocapture noundef readonly %2) local_unnamed_addr #0 {
  %4 = getelementptr inbounds i8, ptr %2, i64 4
  %5 = load i32, ptr %4, align 4
  %6 = icmp eq i32 %5, 8
  br i1 %6, label %20, label %7

7:                                                ; preds = %3
  %8 = getelementptr inbounds i8, ptr %2, i64 32
  %9 = load i64, ptr %8, align 8
  %10 = icmp eq i64 %9, 0
  br i1 %10, label %20, label %11

11:                                               ; preds = %7
  %12 = tail call noalias ptr @calloc(i64 noundef %9, i64 noundef 1) #10
  %13 = icmp eq ptr %12, null
  br i1 %13, label %.sink.split, label %14

14:                                               ; preds = %11
  %15 = getelementptr inbounds i8, ptr %2, i64 24
  %16 = load i64, ptr %15, align 8
  %17 = tail call i64 @pread64(i32 noundef %0, ptr noundef nonnull %12, i64 noundef %9, i64 noundef %16) #8
  %18 = load i64, ptr %8, align 8
  %.not = icmp eq i64 %17, %18
  br i1 %.not, label %20, label %19

19:                                               ; preds = %14
  tail call void @free(ptr noundef nonnull %12) #8
  br label %.sink.split

.sink.split:                                      ; preds = %11, %19
  %.str.6.sink = phi ptr [ @.str.6, %19 ], [ @.str.5, %11 ]
  tail call void (ptr, ...) @print_debug(ptr noundef nonnull %.str.6.sink) #8
  br label %20

20:                                               ; preds = %.sink.split, %14, %3, %7
  %.0 = phi ptr [ null, %7 ], [ null, %3 ], [ %12, %14 ], [ null, %.sink.split ]
  ret ptr %.0
}